target datalayout = "e-m:e-p270:32:32-p271:32:32-p272:64:64-i64:64-i128:128-f80:128-n8:16:32:64-S128"
target triple = "x86_64-pc-linux-gnu"

%struct.UBiDi = type { ptr, ptr, i32, i32, i32, i32, i32, i32, i32, i32, i32, ptr, ptr, ptr, ptr, ptr, ptr, i8, i8, ptr, ptr, i8, i32, i32, i8, i8, i8, ptr, i32, ptr, i32, ptr, i32, i32, i32, i32, i32, ptr, [10 x %struct.Para], i32, ptr, [1 x %struct.Run], i32, ptr, [5 x %struct.Isolate], %struct.InsertPoints, i32, ptr, ptr }
%struct.Para = type { i32, i32 }
%struct.Run = type { i32, i32, i32 }
%struct.Isolate = type { i32, i32, i32, i16 }
%struct.InsertPoints = type { i32, i32, i32, i32, ptr }

; Function Attrs: mustprogress nounwind uwtable
define void @ubidi_setInverse_77(ptr noundef %0, i8 noundef signext %1) #7 {
  %3 = alloca ptr, align 8
  %4 = alloca i8, align 1
  store ptr %0, ptr %3, align 8, !tbaa !11
  store i8 %1, ptr %4, align 1, !tbaa !30
  %5 = load ptr, ptr %3, align 8, !tbaa !11
  %6 = icmp ne ptr %5, null
  br i1 %6, label %7, label %16

7:                                                ; preds = %2
  %8 = load i8, ptr %4, align 1, !tbaa !30
  %9 = load ptr, ptr %3, align 8, !tbaa !11
  %10 = getelementptr inbounds nuw %struct.UBiDi, ptr %9, i32 0, i32 21
  store i8 %8, ptr %10, align 8, !tbaa !41
  %11 = load i8, ptr %4, align 1, !tbaa !30
  %12 = icmp ne i8 %11, 0
  %13 = select i1 %12, i32 4, i32 0
  %14 = load ptr, ptr %3, align 8, !tbaa !11
  %15 = getelementptr inbounds nuw %struct.UBiDi, ptr %14, i32 0, i32 22
  store i32 %13, ptr %15, align 4, !tbaa !42
  br label %16

16:                                               ; preds = %7, %2
  ret void
}