; Function Attrs: mustprogress nofree norecurse nosync nounwind willreturn memory(argmem: write) uwtable
define void @ubidi_setInverse_77(ptr noundef writeonly %0, i8 noundef signext %1) local_unnamed_addr #6 {
  %.not = icmp eq ptr %0, null
  br i1 %.not, label %7, label %3

3:                                                ; preds = %2
  %4 = getelementptr inbounds nuw i8, ptr %0, i64 128
  store i8 %1, ptr %4, align 8, !tbaa !35
  %.not4 = icmp eq i8 %1, 0
  %5 = select i1 %.not4, i32 0, i32 4
  %6 = getelementptr inbounds nuw i8, ptr %0, i64 132
  store i32 %5, ptr %6, align 4, !tbaa !36
  br label %7

7:                                                ; preds = %3, %2
  ret void
}